; Function Attrs: mustprogress nofree norecurse nosync nounwind willreturn memory(argmem: read) uwtable
define noundef i64 @_ZNK3net11QuicSession25GetNumOpenIncomingStreamsEv(ptr noundef nonnull readonly align 8 captures(none) dereferenceable(2044) %0) unnamed_addr #11 align 2 {
  %2 = getelementptr inbounds nuw i8, ptr %0, i64 1912
  %3 = load i64, ptr %2, align 8, !tbaa !321
  %4 = getelementptr inbounds nuw i8, ptr %0, i64 1920
  %5 = load i64, ptr %4, align 8, !tbaa !323
  %6 = sub i64 %3, %5
  %7 = getelementptr inbounds nuw i8, ptr %0, i64 1928
  %8 = load i64, ptr %7, align 8, !tbaa !270
  %9 = add i64 %6, %8
  ret i64 %9
}